target datalayout = "e-m:e-p270:32:32-p271:32:32-p272:64:64-i64:64-i128:128-f80:128-n8:16:32:64-S128"
target triple = "x86_64-pc-linux-gnu"

@.str = private unnamed_addr constant [14 x i8] c"Stream Closed\00", align 1
@.str.3 = private unnamed_addr constant [12 x i8] c"Write error\00", align 1

; Function Attrs: nounwind uwtable
define hidden void @writeSingle(ptr noundef %0, ptr noundef %1, i32 noundef %2, i8 noundef zeroext %3, ptr noundef %4) #0 {
  %6 = alloca ptr, align 8
  %7 = alloca ptr, align 8
  %8 = alloca i32, align 4
  %9 = alloca i8, align 1
  %10 = alloca ptr, align 8
  %11 = alloca i8, align 1
  %12 = alloca i32, align 4
  %13 = alloca i32, align 4
  store ptr %0, ptr %6, align 8
  store ptr %1, ptr %7, align 8
  store i32 %2, ptr %8, align 4
  store i8 %3, ptr %9, align 1
  store ptr %4, ptr %10, align 8
  %14 = load i32, ptr %8, align 4
  %15 = trunc i32 %14 to i8
  store i8 %15, ptr %11, align 1
  %16 = load ptr, ptr %6, align 8
  %17 = load ptr, ptr %7, align 8
  %18 = load ptr, ptr %10, align 8
  %19 = call i32 @getFD(ptr noundef %16, ptr noundef %17, ptr noundef %18)
  store i32 %19, ptr %13, align 4
  %20 = load i32, ptr %13, align 4
  %21 = icmp eq i32 %20, -1
  br i1 %21, label %22, label %24

22:                                               ; preds = %5
  %23 = load ptr, ptr %6, align 8
  call void @JNU_ThrowIOException(ptr noundef %23, ptr noundef @.str)
  br label %41

24:                                               ; preds = %5
  %25 = load i8, ptr %9, align 1
  %26 = zext i8 %25 to i32
  %27 = icmp eq i32 %26, 1
  br i1 %27, label %28, label %32

28:                                               ; preds = %24
  %29 = load i32, ptr %13, align 4
  %30 = call i64 @handleWrite(i32 noundef %29, ptr noundef %11, i32 noundef 1)
  %31 = trunc i64 %30 to i32
  store i32 %31, ptr %12, align 4
  br label %36

32:                                               ; preds = %24
  %33 = load i32, ptr %13, align 4
  %34 = call i64 @handleWrite(i32 noundef %33, ptr noundef %11, i32 noundef 1)
  %35 = trunc i64 %34 to i32
  store i32 %35, ptr %12, align 4
  br label %36

36:                                               ; preds = %32, %28
  %37 = load i32, ptr %12, align 4
  %38 = icmp eq i32 %37, -1
  br i1 %38, label %39, label %41

39:                                               ; preds = %36
  %40 = load ptr, ptr %6, align 8
  call void @JNU_ThrowIOExceptionWithLastError(ptr noundef %40, ptr noundef @.str.3)
  br label %41

41:                                               ; preds = %39, %36, %22
  ret void
}