; Function Attrs: nounwind uwtable
define hidden void @writeSingle(ptr noundef %0, ptr noundef %1, i32 noundef %2, i8 noundef zeroext %3, ptr noundef %4) local_unnamed_addr #0 {
  %6 = alloca i8, align 1
  %7 = trunc i32 %2 to i8
  store i8 %7, ptr %6, align 1
  %8 = tail call i32 @getFD(ptr noundef %0, ptr noundef %1, ptr noundef %4) #4
  %9 = icmp eq i32 %8, -1
  br i1 %9, label %10, label %11

10:                                               ; preds = %5
  tail call void @JNU_ThrowIOException(ptr noundef %0, ptr noundef nonnull @.str) #4
  br label %16

11:                                               ; preds = %5
  %12 = call i64 @handleWrite(i32 noundef %8, ptr noundef nonnull %6, i32 noundef 1) #4
  %13 = and i64 %12, 4294967295
  %14 = icmp eq i64 %13, 4294967295
  br i1 %14, label %15, label %16

15:                                               ; preds = %11
  call void @JNU_ThrowIOExceptionWithLastError(ptr noundef %0, ptr noundef nonnull @.str.3) #4
  br label %16

16:                                               ; preds = %15, %11, %10
  ret void
}